target datalayout = "e-m:e-p270:32:32-p271:32:32-p272:64:64-i64:64-i128:128-f80:128-n8:16:32:64-S128"
target triple = "x86_64-pc-linux-gnu"

%struct.sqlca_t = type { [8 x i8], i64, i64, %struct.anon, [8 x i8], [6 x i64], [8 x i8], [5 x i8] }
%struct.anon = type { i32, [150 x i8] }

@.str = private unnamed_addr constant [14 x i8] c"out of memory\00", align 1
@.str.28 = private unnamed_addr constant [6 x i8] c"YE000\00", align 1
@.str.29 = private unnamed_addr constant [6 x i8] c"57P02\00", align 1
@.str.30 = private unnamed_addr constant [38 x i8] c"the connection to the server was lost\00", align 1
@.str.31 = private unnamed_addr constant [14 x i8] c"%s on line %d\00", align 1
@.str.32 = private unnamed_addr constant [6 x i8] c"23505\00", align 1
@.str.33 = private unnamed_addr constant [6 x i8] c"21000\00", align 1
@.str.34 = private unnamed_addr constant [41 x i8] c"raising sqlstate %.*s (sqlcode %ld): %s\0A\00", align 1

; Function Attrs: nounwind uwtable
define void @ecpg_raise_backend(i32 noundef %0, ptr noundef %1, ptr noundef %2, i32 noundef %3) #0 {
  %5 = alloca i32, align 4
  %6 = alloca ptr, align 8
  %7 = alloca ptr, align 8
  %8 = alloca i32, align 4
  %9 = alloca ptr, align 8
  %10 = alloca ptr, align 8
  %11 = alloca ptr, align 8
  %12 = alloca i32, align 4
  store i32 %0, ptr %5, align 4
  store ptr %1, ptr %6, align 8
  store ptr %2, ptr %7, align 8
  store i32 %3, ptr %8, align 4
  call void @llvm.lifetime.start.p0(i64 8, ptr %9) #5
  %13 = call ptr @ECPGget_sqlca()
  store ptr %13, ptr %9, align 8
  call void @llvm.lifetime.start.p0(i64 8, ptr %10) #5
  call void @llvm.lifetime.start.p0(i64 8, ptr %11) #5
  %14 = load ptr, ptr %9, align 8
  %15 = icmp eq ptr %14, null
  br i1 %15, label %16, label %17

16:                                               ; preds = %4
  call void (ptr, ...) @ecpg_log(ptr noundef @.str)
  call void @ECPGfree_auto_mem()
  store i32 1, ptr %12, align 4
  br label %113

17:                                               ; preds = %4
  %18 = load ptr, ptr %6, align 8
  %19 = call ptr @PQresultErrorField(ptr noundef %18, i32 noundef 67)
  store ptr %19, ptr %10, align 8
  %20 = load ptr, ptr %10, align 8
  %21 = icmp eq ptr %20, null
  br i1 %21, label %22, label %23

22:                                               ; preds = %17
  store ptr @.str.28, ptr %10, align 8
  br label %23

23:                                               ; preds = %22, %17
  %24 = load ptr, ptr %6, align 8
  %25 = call ptr @PQresultErrorField(ptr noundef %24, i32 noundef 77)
  store ptr %25, ptr %11, align 8
  %26 = load ptr, ptr %11, align 8
  %27 = icmp eq ptr %26, null
  br i1 %27, label %28, label %31

28:                                               ; preds = %23
  %29 = load ptr, ptr %7, align 8
  %30 = call ptr @PQerrorMessage(ptr noundef %29)
  store ptr %30, ptr %11, align 8
  br label %31

31:                                               ; preds = %28, %23
  %32 = load ptr, ptr %10, align 8
  %33 = call i32 @strcmp(ptr noundef %32, ptr noundef @.str.28) #6
  %34 = icmp eq i32 %33, 0
  br i1 %34, label %35, label %41

35:                                               ; preds = %31
  %36 = load ptr, ptr %7, align 8
  %37 = call i32 @PQstatus(ptr noundef %36)
  %38 = icmp eq i32 %37, 1
  br i1 %38, label %39, label %40

39:                                               ; preds = %35
  store ptr @.str.29, ptr %10, align 8
  store ptr @.str.30, ptr %11, align 8
  br label %40

40:                                               ; preds = %39, %35
  br label %41

41:                                               ; preds = %40, %31
  %42 = load ptr, ptr %9, align 8
  %43 = getelementptr inbounds nuw %struct.sqlca_t, ptr %42, i32 0, i32 3
  %44 = getelementptr inbounds nuw %struct.anon, ptr %43, i32 0, i32 1
  %45 = getelementptr inbounds [150 x i8], ptr %44, i64 0, i64 0
  %46 = load ptr, ptr %11, align 8
  %47 = load i32, ptr %5, align 4
  %48 = call i32 (ptr, i64, ptr, ...) @pg_snprintf(ptr noundef %45, i64 noundef 150, ptr noundef @.str.31, ptr noundef %46, i32 noundef %47)
  %49 = load ptr, ptr %9, align 8
  %50 = getelementptr inbounds nuw %struct.sqlca_t, ptr %49, i32 0, i32 3
  %51 = getelementptr inbounds nuw %struct.anon, ptr %50, i32 0, i32 1
  %52 = getelementptr inbounds [150 x i8], ptr %51, i64 0, i64 0
  %53 = call i64 @strlen(ptr noundef %52) #6
  %54 = trunc i64 %53 to i32
  %55 = load ptr, ptr %9, align 8
  %56 = getelementptr inbounds nuw %struct.sqlca_t, ptr %55, i32 0, i32 3
  %57 = getelementptr inbounds nuw %struct.anon, ptr %56, i32 0, i32 0
  store i32 %54, ptr %57, align 8
  %58 = load ptr, ptr %9, align 8
  %59 = getelementptr inbounds nuw %struct.sqlca_t, ptr %58, i32 0, i32 7
  %60 = getelementptr inbounds [5 x i8], ptr %59, i64 0, i64 0
  %61 = load ptr, ptr %10, align 8
  %62 = call ptr @strncpy(ptr noundef %60, ptr noundef %61, i64 noundef 5) #5
  %63 = load ptr, ptr %9, align 8
  %64 = getelementptr inbounds nuw %struct.sqlca_t, ptr %63, i32 0, i32 7
  %65 = getelementptr inbounds [5 x i8], ptr %64, i64 0, i64 0
  %66 = call i32 @strncmp(ptr noundef %65, ptr noundef @.str.32, i64 noundef 5) #6
  %67 = icmp eq i32 %66, 0
  br i1 %67, label %68, label %80

68:                                               ; preds = %41
  %69 = load i32, ptr %8, align 4
  %70 = icmp eq i32 %69, 1
  br i1 %70, label %74, label %71

71:                                               ; preds = %68
  %72 = load i32, ptr %8, align 4
  %73 = icmp eq i32 %72, 2
  br label %74

74:                                               ; preds = %71, %68
  %75 = phi i1 [ true, %68 ], [ %73, %71 ]
  %76 = select i1 %75, i32 -239, i32 -403
  %77 = sext i32 %76 to i64
  %78 = load ptr, ptr %9, align 8
  %79 = getelementptr inbounds nuw %struct.sqlca_t, ptr %78, i32 0, i32 2
  store i64 %77, ptr %79, align 8
  br label %102

80:                                               ; preds = %41
  %81 = load ptr, ptr %9, align 8
  %82 = getelementptr inbounds nuw %struct.sqlca_t, ptr %81, i32 0, i32 7
  %83 = getelementptr inbounds [5 x i8], ptr %82, i64 0, i64 0
  %84 = call i32 @strncmp(ptr noundef %83, ptr noundef @.str.33, i64 noundef 5) #6
  %85 = icmp eq i32 %84, 0
  br i1 %85, label %86, label %98

86:                                               ; preds = %80
  %87 = load i32, ptr %8, align 4
  %88 = icmp eq i32 %87, 1
  br i1 %88, label %92, label %89

89:                                               ; preds = %86
  %90 = load i32, ptr %8, align 4
  %91 = icmp eq i32 %90, 2
  br label %92

92:                                               ; preds = %89, %86
  %93 = phi i1 [ true, %86 ], [ %91, %89 ]
  %94 = select i1 %93, i32 -284, i32 -404
  %95 = sext i32 %94 to i64
  %96 = load ptr, ptr %9, align 8
  %97 = getelementptr inbounds nuw %struct.sqlca_t, ptr %96, i32 0, i32 2
  store i64 %95, ptr %97, align 8
  br label %101

98:                                               ; preds = %80
  %99 = load ptr, ptr %9, align 8
  %100 = getelementptr inbounds nuw %struct.sqlca_t, ptr %99, i32 0, i32 2
  store i64 -400, ptr %100, align 8
  br label %101

101:                                              ; preds = %98, %92
  br label %102

102:                                              ; preds = %101, %74
  %103 = load ptr, ptr %9, align 8
  %104 = getelementptr inbounds nuw %struct.sqlca_t, ptr %103, i32 0, i32 7
  %105 = getelementptr inbounds [5 x i8], ptr %104, i64 0, i64 0
  %106 = load ptr, ptr %9, align 8
  %107 = getelementptr inbounds nuw %struct.sqlca_t, ptr %106, i32 0, i32 2
  %108 = load i64, ptr %107, align 8
  %109 = load ptr, ptr %9, align 8
  %110 = getelementptr inbounds nuw %struct.sqlca_t, ptr %109, i32 0, i32 3
  %111 = getelementptr inbounds nuw %struct.anon, ptr %110, i32 0, i32 1
  %112 = getelementptr inbounds [150 x i8], ptr %111, i64 0, i64 0
  call void (ptr, ...) @ecpg_log(ptr noundef @.str.34, i32 noundef 5, ptr noundef %105, i64 noundef %108, ptr noundef %112)
  call void @ECPGfree_auto_mem()
  store i32 0, ptr %12, align 4
  br label %113

113:                                              ; preds = %102, %16
  call void @llvm.lifetime.end.p0(i64 8, ptr %11) #5
  call void @llvm.lifetime.end.p0(i64 8, ptr %10) #5
  call void @llvm.lifetime.end.p0(i64 8, ptr %9) #5
  %114 = load i32, ptr %12, align 4
  switch i32 %114, label %116 [
    i32 0, label %115
    i32 1, label %115
  ]

115:                                              ; preds = %113, %113
  ret void

116:                                              ; preds = %113
  unreachable
}