; Function Attrs: nounwind uwtable
define void @ecpg_raise_backend(i32 noundef %0, ptr noundef %1, ptr noundef %2, i32 noundef %3) local_unnamed_addr #0 {
  %5 = tail call ptr @ECPGget_sqlca() #5
  %6 = icmp eq ptr %5, null
  br i1 %6, label %7, label %8

7:                                                ; preds = %4
  tail call void (ptr, ...) @ecpg_log(ptr noundef nonnull @.str) #5
  br label %44

8:                                                ; preds = %4
  %9 = tail call ptr @PQresultErrorField(ptr noundef %1, i32 noundef 67) #5
  %10 = icmp eq ptr %9, null
  %spec.store.select = select i1 %10, ptr @.str.28, ptr %9
  %11 = tail call ptr @PQresultErrorField(ptr noundef %1, i32 noundef 77) #5
  %12 = icmp eq ptr %11, null
  br i1 %12, label %13, label %15

13:                                               ; preds = %8
  %14 = tail call ptr @PQerrorMessage(ptr noundef %2) #5
  br label %15

15:                                               ; preds = %13, %8
  %.0 = phi ptr [ %14, %13 ], [ %11, %8 ]
  %16 = tail call i32 @strcmp(ptr noundef nonnull dereferenceable(1) %spec.store.select, ptr noundef nonnull dereferenceable(6) @.str.28) #6
  %17 = icmp eq i32 %16, 0
  br i1 %17, label %18, label %21

18:                                               ; preds = %15
  %19 = tail call i32 @PQstatus(ptr noundef %2) #5
  %20 = icmp eq i32 %19, 1
  %spec.select = select i1 %20, ptr @.str.29, ptr %spec.store.select
  %spec.select29 = select i1 %20, ptr @.str.30, ptr %.0
  br label %21

21:                                               ; preds = %18, %15
  %.026 = phi ptr [ %spec.store.select, %15 ], [ %spec.select, %18 ]
  %.1 = phi ptr [ %.0, %15 ], [ %spec.select29, %18 ]
  %22 = getelementptr inbounds nuw i8, ptr %5, i64 24
  %23 = getelementptr inbounds nuw i8, ptr %5, i64 28
  %24 = tail call i32 (ptr, i64, ptr, ...) @pg_snprintf(ptr noundef nonnull %23, i64 noundef 150, ptr noundef nonnull @.str.31, ptr noundef %.1, i32 noundef %0) #5
  %25 = tail call i64 @strlen(ptr noundef nonnull dereferenceable(1) %23) #6
  %26 = trunc i64 %25 to i32
  store i32 %26, ptr %22, align 8
  %27 = getelementptr inbounds nuw i8, ptr %5, i64 248
  %28 = tail call ptr @strncpy(ptr noundef nonnull dereferenceable(1) %27, ptr noundef nonnull dereferenceable(1) %.026, i64 noundef 5) #5
  %29 = tail call i32 @strncmp(ptr noundef nonnull dereferenceable(1) %27, ptr noundef nonnull dereferenceable(6) @.str.32, i64 noundef 5) #6
  %30 = icmp eq i32 %29, 0
  br i1 %30, label %31, label %35

31:                                               ; preds = %21
  %32 = add i32 %3, -1
  %33 = icmp ult i32 %32, 2
  %34 = select i1 %33, i64 -239, i64 -403
  br label %42

35:                                               ; preds = %21
  %36 = tail call i32 @strncmp(ptr noundef nonnull dereferenceable(1) %27, ptr noundef nonnull dereferenceable(6) @.str.33, i64 noundef 5) #6
  %37 = icmp eq i32 %36, 0
  br i1 %37, label %38, label %42

38:                                               ; preds = %35
  %39 = add i32 %3, -1
  %40 = icmp ult i32 %39, 2
  %41 = select i1 %40, i64 -284, i64 -404
  br label %42

42:                                               ; preds = %35, %38, %31
  %.sink = phi i64 [ %41, %38 ], [ %34, %31 ], [ -400, %35 ]
  %43 = getelementptr inbounds nuw i8, ptr %5, i64 16
  store i64 %.sink, ptr %43, align 8
  tail call void (ptr, ...) @ecpg_log(ptr noundef nonnull @.str.34, i32 noundef 5, ptr noundef nonnull %27, i64 noundef %.sink, ptr noundef nonnull %23) #5
  br label %44

44:                                               ; preds = %42, %7
  tail call void @ECPGfree_auto_mem() #5
  ret void
}